; Function Attrs: nounwind uwtable
define { <2 x float>, <2 x float> } @b2Shape_GetAABB(i64 %0) local_unnamed_addr #0 {
  %.sroa.2.0.extract.shift = lshr i64 %0, 32
  %2 = trunc nuw i64 %.sroa.2.0.extract.shift to i32
  %3 = and i32 %2, 65535
  %4 = tail call ptr @b2GetWorld(i32 noundef %3) #10
  %5 = icmp eq ptr %4, null
  br i1 %5, label %12, label %6

6:                                                ; preds = %1
  %7 = getelementptr i8, ptr %4, i64 1256
  %.val = load ptr, ptr %7, align 8, !tbaa !14
  %8 = shl i64 %0, 32
  %sext.i = add i64 %8, -4294967296
  %9 = ashr exact i64 %sext.i, 32
  %10 = getelementptr inbounds %struct.b2Shape, ptr %.val, i64 %9
  %11 = getelementptr inbounds nuw i8, ptr %10, i64 48
  %.sroa.03.0.copyload = load <2 x float>, ptr %11, align 8
  %.sroa.4.0..sroa_idx = getelementptr inbounds nuw i8, ptr %10, i64 56
  %.sroa.4.0.copyload = load <2 x float>, ptr %.sroa.4.0..sroa_idx, align 8
  br label %12

12:                                               ; preds = %1, %6
  %.sroa.03.0 = phi <2 x float> [ %.sroa.03.0.copyload, %6 ], [ zeroinitializer, %1 ]
  %.sroa.4.0 = phi <2 x float> [ %.sroa.4.0.copyload, %6 ], [ zeroinitializer, %1 ]
  %.fca.0.insert = insertvalue { <2 x float>, <2 x float> } poison, <2 x float> %.sroa.03.0, 0
  %.fca.1.insert = insertvalue { <2 x float>, <2 x float> } %.fca.0.insert, <2 x float> %.sroa.4.0, 1
  ret { <2 x float>, <2 x float> } %.fca.1.insert
}